; Function Attrs: mustprogress nounwind uwtable
define void @_ZN7testing32ScopedFakeTestPartResultReporterD2Ev(ptr noundef nonnull align 8 captures(none) dereferenceable(32) initializes((0, 8)) %0) unnamed_addr #5 align 2 personality ptr @__gxx_personality_v0 {
  store ptr getelementptr inbounds nuw inrange(-16, 24) (i8, ptr @_ZTVN7testing32ScopedFakeTestPartResultReporterE, i64 16), ptr %0, align 8, !tbaa !23
  %2 = load atomic i8, ptr @_ZGVZN7testing8UnitTest11GetInstanceEvE8instance acquire, align 8
  %3 = icmp eq i8 %2, 0
  br i1 %3, label %4, label %11, !prof !41

4:                                                ; preds = %1
  %5 = tail call i32 @__cxa_guard_acquire(ptr nonnull @_ZGVZN7testing8UnitTest11GetInstanceEvE8instance) #56
  %.not.i.i = icmp eq i32 %5, 0
  br i1 %.not.i.i, label %11, label %6

6:                                                ; preds = %4
  invoke void @_ZN7testing8UnitTestC1Ev(ptr noundef nonnull align 8 dereferenceable(72) @_ZZN7testing8UnitTest11GetInstanceEvE8instance)
          to label %7 unwind label %9

7:                                                ; preds = %6
  %8 = tail call i32 @__cxa_atexit(ptr nonnull @_ZN7testing8UnitTestD1Ev, ptr nonnull @_ZZN7testing8UnitTest11GetInstanceEvE8instance, ptr nonnull @__dso_handle) #56
  tail call void @__cxa_guard_release(ptr nonnull @_ZGVZN7testing8UnitTest11GetInstanceEvE8instance) #56
  br label %11

9:                                                ; preds = %6
  %10 = landingpad { ptr, i32 }
          catch ptr null
  tail call void @__cxa_guard_abort(ptr nonnull @_ZGVZN7testing8UnitTest11GetInstanceEvE8instance) #56
  br label %.body

11:                                               ; preds = %7, %4, %1
  %12 = load ptr, ptr getelementptr inbounds nuw (i8, ptr @_ZZN7testing8UnitTest11GetInstanceEvE8instance, i64 64), align 8, !tbaa !42
  %13 = getelementptr inbounds nuw i8, ptr %0, i64 8
  %14 = load i32, ptr %13, align 8, !tbaa !184
  %15 = icmp eq i32 %14, 1
  %16 = getelementptr inbounds nuw i8, ptr %0, i64 16
  %17 = load ptr, ptr %16, align 8, !tbaa !189
  br i1 %15, label %18, label %19

18:                                               ; preds = %11
  invoke void @_ZN7testing8internal12UnitTestImpl31SetGlobalTestPartResultReporterEPNS_31TestPartResultReporterInterfaceE(ptr noundef nonnull align 8 dereferenceable(497) %12, ptr noundef %17)
          to label %22 unwind label %23

19:                                               ; preds = %11
  %20 = getelementptr inbounds nuw i8, ptr %12, i64 144
  %21 = invoke noundef ptr @_ZNK7testing8internal11ThreadLocalIPNS_31TestPartResultReporterInterfaceEE16GetOrCreateValueEv(ptr noundef nonnull align 8 dereferenceable(16) %20)
          to label %_ZN7testing8internal12UnitTestImpl41SetTestPartResultReporterForCurrentThreadEPNS_31TestPartResultReporterInterfaceE.exit unwind label %23

_ZN7testing8internal12UnitTestImpl41SetTestPartResultReporterForCurrentThreadEPNS_31TestPartResultReporterInterfaceE.exit: ; preds = %19
  store ptr %17, ptr %21, align 8, !tbaa !65
  br label %22

22:                                               ; preds = %_ZN7testing8internal12UnitTestImpl41SetTestPartResultReporterForCurrentThreadEPNS_31TestPartResultReporterInterfaceE.exit, %18
  ret void

23:                                               ; preds = %19, %18
  %24 = landingpad { ptr, i32 }
          catch ptr null
  br label %.body

.body:                                            ; preds = %9, %23
  %eh.lpad-body = phi { ptr, i32 } [ %24, %23 ], [ %10, %9 ]
  %25 = extractvalue { ptr, i32 } %eh.lpad-body, 0
  tail call void @__clang_call_terminate(ptr %25) #61
  unreachable
}